cnumpy.core.multiarray
_reconstruct
p1
(cnumpy
ndarray
p2
(I0
tS'b'
tRp3
(I1
(I62
tcnumpy
dtype
p4
(S'O8'
I0
I1
tRp5
(I3
S'|'
NNNI-1
I-1
I63
tbI00
(lp6
cigraph
Graph
p7
(I3
(lp8
(I0
I2
tp9
a(I2
I1
tp10
aI01
(d(dp11
S'node_type'
p12
(lp13
S'object'
p14
ag14
aS'spatial_relation'
p15
asS'hash_name'
p16
(lp17
I6656065949774670334
aI2943748495363814872
aI4451021053563392526
asS'name'
p18
(lp19
S'Coffee_Machine'
p20
aS'hand'
p21
a(dp22
S'argd'
p23
S'Medium'
p24
sS'qtcbs'
p25
S'0,-'
p26
sas(dtRp27
(dp28
bag7
(I3
(lp29
(I0
I2
tp30
a(I2
I1
tp31
aI01
(d(dp32
g12
(lp33
g14
ag14
ag15
asg16
(lp34
I-1738315723147636300
aI2943748495363814872
aI7176919451872790204
asg18
(lp35
g20
ag21
a(dp36
g23
g24
sg25
S'0,+'
p37
sas(dtRp38
(dp39
bag7
(I3
(lp40
(I0
I2
tp41
a(I2
I1
tp42
aI01
(d(dp43
g12
(lp44
g14
ag14
ag15
asg16
(lp45
I8408967133789973505
aI2943748495363814872
aI6376960376177072045
asg18
(lp46
S'Microwave'
p47
ag21
a(dp48
g23
S'Near'
p49
sg25
S'0,-'
p50
sas(dtRp51
(dp52
bag7
(I3
(lp53
(I0
I2
tp54
a(I2
I1
tp55
aI01
(d(dp56
g12
(lp57
g14
ag14
ag15
asg16
(lp58
I-5134474295189981758
aI2943748495363814872
aI7421562519733548918
asg18
(lp59
g47
ag21
a(dp60
g23
g49
sg25
S'0,0'
p61
sas(dtRp62
(dp63
bag7
(I3
(lp64
(I0
I2
tp65
a(I2
I1
tp66
aI01
(d(dp67
g12
(lp68
g14
ag14
ag15
asg16
(lp69
I37941085128284994
aI2943748495363814872
aI4451021053563392526
asg18
(lp70
g47
ag21
a(dp71
g23
g24
sg25
S'0,-'
p72
sas(dtRp73
(dp74
bag7
(I5
(lp75
(I0
I2
tp76
a(I2
I1
tp77
a(I0
I3
tp78
a(I3
I1
tp79
a(I4
I2
tp80
a(I3
I4
tp81
aI01
(d(dp82
g12
(lp83
g14
ag14
ag15
ag15
aS'temporal_relation'
p84
asg16
(lp85
I-2644289121166508371
aI2943748495363814872
aI7421562519733548918
aI-2031013197349001909
aI-8324344705062564924
asg18
(lp86
g47
ag21
ag60
ag48
aS'm'
as(dtRp87
(dp88
bag7
(I5
(lp89
(I0
I2
tp90
a(I2
I1
tp91
a(I0
I3
tp92
a(I3
I1
tp93
a(I2
I4
tp94
a(I4
I3
tp95
aI01
(d(dp96
g12
(lp97
g14
ag14
ag15
ag15
ag84
asg16
(lp98
I3116179102953137397
aI2943748495363814872
aI952544498564042817
aI6376960376177072045
aI-7278691026252464893
asg18
(lp99
g47
ag21
a(dp100
g23
g24
sg25
g50
sag48
aS'm'
as(dtRp101
(dp102
bag7
(I3
(lp103
(I0
I2
tp104
a(I2
I1
tp105
aI01
(d(dp106
g12
(lp107
g14
ag14
ag15
asg16
(lp108
I-8127552370213363657
aI2943748495363814872
aI786835931989030611
asg18
(lp109
g20
ag21
a(dp110
g23
g49
sg25
S'0,+'
p111
sas(dtRp112
(dp113
bag7
(I5
(lp114
(I0
I2
tp115
a(I2
I1
tp116
a(I0
I3
tp117
a(I3
I1
tp118
a(I2
I4
tp119
a(I4
I3
tp120
aI01
(d(dp121
g12
(lp122
g14
ag14
ag15
ag15
ag84
asg16
(lp123
I5716512430160227121
aI2943748495363814872
aI5999042254258511315
aI7176919451872790204
aI5049612174079324638
asg18
(lp124
g20
ag21
ag110
a(dp125
g23
g24
sg25
g111
saS'm'
as(dtRp126
(dp127
bag7
(I3
(lp128
(I0
I2
tp129
a(I2
I1
tp130
aI01
(d(dp131
g12
(lp132
g14
ag14
ag15
asg16
(lp133
I-5011325198360150715
aI2943748495363814872
aI-4149100665205021431
asg18
(lp134
g20
ag21
a(dp135
g23
g24
sg25
S'0,0'
p136
sas(dtRp137
(dp138
bag7
(I5
(lp139
(I0
I2
tp140
a(I2
I1
tp141
a(I0
I3
tp142
a(I3
I1
tp143
a(I4
I2
tp144
a(I3
I4
tp145
aI01
(d(dp146
g12
(lp147
g14
ag14
ag15
ag15
ag84
asg16
(lp148
I-4933985247664635944
aI2943748495363814872
aI786835931989030611
aI785897909423859772
aI-5667327595027073439
asg18
(lp149
g20
ag21
ag110
a(dp150
g23
S'Touch'
p151
sg25
g111
saS'm'
as(dtRp152
(dp153
bag7
(I3
(lp154
(I0
I2
tp155
a(I2
I1
tp156
aI01
(d(dp157
g12
(lp158
g14
ag14
ag15
asg16
(lp159
I4232041277156461157
aI2943748495363814872
aI5178520372251581727
asg18
(lp160
g20
ag21
ag150
as(dtRp161
(dp162
bag7
(I5
(lp163
(I0
I2
tp164
a(I2
I1
tp165
a(I0
I3
tp166
a(I3
I1
tp167
a(I2
I4
tp168
a(I4
I3
tp169
aI01
(d(dp170
g12
(lp171
g14
ag14
ag15
ag15
ag84
asg16
(lp172
I5876522943585845101
aI2943748495363814872
aI7124345806025013993
aI-4149100665205021431
aI6831453706308720211
asg18
(lp173
g47
ag21
a(dp174
g23
g24
sg25
S'0,-'
p175
sa(dp176
g23
g24
sg25
S'0,0'
p177
saS'm'
as(dtRp178
(dp179
bag7
(I5
(lp180
(I0
I2
tp181
a(I2
I1
tp182
a(I0
I3
tp183
a(I3
I1
tp184
a(I2
I4
tp185
a(I4
I3
tp186
aI01
(d(dp187
g12
(lp188
g14
ag14
ag15
ag15
ag84
asg16
(lp189
I-9055329432844767843
aI2943748495363814872
aI-3891691985452814689
aI7421562519733548918
aI-8324344705062564924
asg18
(lp190
g47
ag21
ag176
a(dp191
g23
g49
sg25
g177
saS'm'
as(dtRp192
(dp193
bag7
(I3
(lp194
(I0
I2
tp195
a(I2
I1
tp196
aI01
(d(dp197
g12
(lp198
g14
ag14
ag15
asg16
(lp199
I7863124402294895765
aI2943748495363814872
aI-4149100665205021431
asg18
(lp200
g47
ag21
ag176
as(dtRp201
(dp202
bag7
(I5
(lp203
(I0
I2
tp204
a(I2
I1
tp205
a(I0
I3
tp206
a(I3
I1
tp207
a(I2
I4
tp208
a(I4
I3
tp209
aI01
(d(dp210
g12
(lp211
g14
ag14
ag15
ag15
ag84
asg16
(lp212
I-9055329432844767843
aI2943748495363814872
aI1172314437366189169
aI-4149100665205021431
aI6831453706308720211
asg18
(lp213
g47
ag21
ag191
a(dp214
g23
g24
sg25
g177
saS'm'
as(dtRp215
(dp216
bag7
(I5
(lp217
(I0
I2
tp218
a(I2
I1
tp219
a(I0
I3
tp220
a(I3
I1
tp221
a(I2
I4
tp222
a(I4
I3
tp223
aI01
(d(dp224
S'node_type'
p225
(lp226
S'object'
p227
ag227
aS'spatial_relation'
p228
ag228
aS'temporal_relation'
p229
asS'hash_name'
p230
(lp231
I-1141277297434528560
aI2943748495363814872
aI7124345806025013993
aI-4149100665205021431
aI6831453706308720211
asS'name'
p232
(lp233
S'Fruit_bowl'
p234
aS'hand'
p235
a(dp236
S'argd'
p237
S'Medium'
p238
sS'qtcbs'
p239
S'0,-'
p240
sa(dp241
g237
g238
sg239
S'0,0'
p242
saS'm'
as(dtRp243
(dp244
bag7
(I3
(lp245
(I0
I2
tp246
a(I2
I1
tp247
aI01
(d(dp248
g225
(lp249
g227
ag227
ag228
asg230
(lp250
I-8463932255958198275
aI2943748495363814872
aI4451021053563392526
asg232
(lp251
g234
ag235
ag236
as(dtRp252
(dp253
bag7
(I3
(lp254
(I0
I2
tp255
a(I2
I1
tp256
aI01
(d(dp257
g225
(lp258
g227
ag227
ag228
asg230
(lp259
I6150333844836147694
aI2943748495363814872
aI-4149100665205021431
asg232
(lp260
g234
ag235
ag241
as(dtRp261
(dp262
bag7
(I3
(lp263
(I0
I2
tp264
a(I2
I1
tp265
aI01
(d(dp266
S'node_type'
p267
(lp268
S'object'
p269
ag269
aS'spatial_relation'
p270
asS'hash_name'
p271
(lp272
I6620331350963823873
aI2943748495363814872
aI6376960376177072045
asS'name'
p273
(lp274
S'Coffee_Machine'
p275
aS'hand'
p276
a(dp277
S'argd'
p278
S'Near'
p279
sS'qtcbs'
p280
S'0,-'
p281
sas(dtRp282
(dp283
bag7
(I3
(lp284
(I0
I2
tp285
a(I2
I1
tp286
aI01
(d(dp287
g267
(lp288
g269
ag269
ag270
asg271
(lp289
I5449974345051489622
aI2943748495363814872
aI7421562519733548918
asg273
(lp290
g275
ag276
a(dp291
g278
g279
sg280
S'0,0'
p292
sas(dtRp293
(dp294
bag7
(I3
(lp295
(I0
I2
tp296
a(I2
I1
tp297
aI01
(d(dp298
g267
(lp299
g269
ag269
ag270
asg271
(lp300
I-4166652396142349393
aI2943748495363814872
aI7834580806469443149
asg273
(lp301
g275
ag276
a(dp302
g278
S'Touch'
p303
sg280
S'0,-'
p304
sas(dtRp305
(dp306
bag7
(I5
(lp307
(I0
I2
tp308
a(I2
I1
tp309
a(I0
I3
tp310
a(I3
I1
tp311
a(I4
I2
tp312
a(I3
I4
tp313
aI01
(d(dp314
g267
(lp315
g269
ag269
ag270
ag270
aS'temporal_relation'
p316
asg271
(lp317
I-2632941245955734266
aI2943748495363814872
aI7421562519733548918
aI6721519785515249442
aI-8324344705062564924
asg273
(lp318
g275
ag276
ag291
a(dp319
g278
g303
sg280
g292
saS'm'
as(dtRp320
(dp321
bag7
(I3
(lp322
(I0
I2
tp323
a(I2
I1
tp324
aI01
(d(dp325
g267
(lp326
g269
ag269
ag270
asg271
(lp327
I-6774434637967949356
aI2943748495363814872
aI-2617503310424312746
asg273
(lp328
g275
ag276
ag319
as(dtRp329
(dp330
bag7
(I3
(lp331
(I0
I2
tp332
a(I2
I1
tp333
aI01
(d(dp334
S'node_type'
p335
(lp336
S'object'
p337
ag337
aS'spatial_relation'
p338
asS'hash_name'
p339
(lp340
I-4812265072702558164
aI2943748495363814872
aI-4149100665205021431
asS'name'
p341
(lp342
S'Sink'
p343
aS'hand'
p344
a(dp345
S'argd'
p346
S'Medium'
p347
sS'qtcbs'
p348
S'0,0'
p349
sas(dtRp350
(dp351
bag7
(I3
(lp352
(I0
I2
tp353
a(I2
I1
tp354
aI01
(d(dp355
g335
(lp356
g337
ag337
ag338
asg339
(lp357
I-6841787277495247042
aI2943748495363814872
aI-2617503310424312746
asg341
(lp358
S'Dishwasher'
p359
ag344
a(dp360
g346
S'Touch'
p361
sg348
S'0,0'
p362
sas(dtRp363
(dp364
bag7
(I3
(lp365
(I0
I2
tp366
a(I2
I1
tp367
aI01
(d(dp368
S'node_type'
p369
(lp370
S'object'
p371
ag371
aS'spatial_relation'
p372
asS'hash_name'
p373
(lp374
I6114476999420750319
aI2943748495363814872
aI7421562519733548918
asS'name'
p375
(lp376
S'Printer'
p377
aS'hand'
p378
a(dp379
S'argd'
p380
S'Near'
p381
sS'qtcbs'
p382
S'0,0'
p383
sas(dtRp384
(dp385
bag7
(I5
(lp386
(I0
I2
tp387
a(I2
I1
tp388
a(I0
I3
tp389
a(I3
I1
tp390
a(I2
I4
tp391
a(I4
I3
tp392
aI01
(d(dp393
g369
(lp394
g371
ag371
ag372
ag372
aS'temporal_relation'
p395
asg373
(lp396
I5781379612082550239
aI2943748495363814872
aI-8029387278036107798
aI-2617503310424312746
aI-2219404083398059562
asg375
(lp397
g377
ag378
a(dp398
g380
g381
sg382
S'0,0'
p399
sa(dp400
g380
S'Touch'
p401
sg382
g399
saS'm'
as(dtRp402
(dp403
bag7
(I3
(lp404
(I0
I2
tp405
a(I2
I1
tp406
aI01
(d(dp407
g369
(lp408
g371
ag371
ag372
asg373
(lp409
I-6068317796762907512
aI2943748495363814872
aI-4149100665205021431
asg375
(lp410
g377
ag378
a(dp411
g380
S'Medium'
p412
sg382
g383
sas(dtRp413
(dp414
bag7
(I3
(lp415
(I0
I2
tp416
a(I2
I1
tp417
aI01
(d(dp418
g369
(lp419
g371
ag371
ag372
asg373
(lp420
I7451943882397867796
aI2943748495363814872
aI6376960376177072045
asg375
(lp421
g377
ag378
a(dp422
g380
g381
sg382
S'0,-'
p423
sas(dtRp424
(dp425
bag7
(I5
(lp426
(I0
I2
tp427
a(I2
I1
tp428
a(I0
I3
tp429
a(I3
I1
tp430
a(I2
I4
tp431
a(I4
I3
tp432
aI01
(d(dp433
g369
(lp434
g371
ag371
ag372
ag372
ag395
asg373
(lp435
I5781379612082550239
aI2943748495363814872
aI6721519785515249442
aI7421562519733548918
aI-8324344705062564924
asg375
(lp436
g377
ag378
a(dp437
g380
g401
sg382
g399
sag398
aS'm'
as(dtRp438
(dp439
bag7
(I3
(lp440
(I0
I2
tp441
a(I2
I1
tp442
aI01
(d(dp443
g369
(lp444
g371
ag371
ag372
asg373
(lp445
I8527351988858709919
aI2943748495363814872
aI-2617503310424312746
asg375
(lp446
g377
ag378
ag437
as(dtRp447
(dp448
bag7
(I5
(lp449
(I0
I2
tp450
a(I2
I1
tp451
a(I0
I3
tp452
a(I3
I1
tp453
a(I2
I4
tp454
a(I4
I3
tp455
aI01
(d(dp456
S'node_type'
p457
(lp458
S'object'
p459
ag459
aS'spatial_relation'
p460
ag460
aS'temporal_relation'
p461
asS'hash_name'
p462
(lp463
I-7464679880962223931
aI2943748495363814872
aI6717786494626103697
aI-4149100665205021431
aI6831453706308720211
asS'name'
p464
(lp465
S'Microwave'
p466
aS'hand'
p467
a(dp468
S'argd'
p469
S'Touch'
p470
sS'qtcbs'
p471
S'0,0'
p472
sa(dp473
g469
S'Medium'
p474
sg471
g472
saS'm'
as(dtRp475
(dp476
bag7
(I5
(lp477
(I0
I2
tp478
a(I2
I1
tp479
a(I0
I3
tp480
a(I3
I1
tp481
a(I2
I4
tp482
a(I4
I3
tp483
aI01
(d(dp484
g457
(lp485
g459
ag459
ag460
ag460
ag461
asg462
(lp486
I3138563641771920421
aI2943748495363814872
aI5999042254258511315
aI7176919451872790204
aI5049612174079324638
asg464
(lp487
g466
ag467
a(dp488
g469
S'Near'
p489
sg471
S'0,+'
p490
sa(dp491
g469
g474
sg471
g490
saS'm'
as(dtRp492
(dp493
bag7
(I5
(lp494
(I0
I2
tp495
a(I2
I1
tp496
a(I0
I3
tp497
a(I3
I1
tp498
a(I2
I4
tp499
a(I4
I3
tp500
aI01
(d(dp501
g457
(lp502
g459
ag459
ag460
ag460
ag461
asg462
(lp503
I-9122794565340618021
aI2943748495363814872
aI-2178020356559404689
aI-4149100665205021431
aI6831453706308720211
asg464
(lp504
g466
ag467
ag491
a(dp505
g469
g474
sg471
g472
saS'm'
as(dtRp506
(dp507
bag7
(I3
(lp508
(I0
I2
tp509
a(I2
I1
tp510
aI01
(d(dp511
g457
(lp512
g459
ag459
ag460
asg462
(lp513
I5687640957437824752
aI2943748495363814872
aI-2617503310424312746
asg464
(lp514
g466
ag467
ag468
as(dtRp515
(dp516
bag7
(I3
(lp517
(I0
I2
tp518
a(I2
I1
tp519
aI01
(d(dp520
g457
(lp521
g459
ag459
ag460
asg462
(lp522
I8378464952454310595
aI2943748495363814872
aI786835931989030611
asg464
(lp523
g466
ag467
ag488
as(dtRp524
(dp525
bag7
(I3
(lp526
(I0
I2
tp527
a(I2
I1
tp528
aI01
(d(dp529
g457
(lp530
g459
ag459
ag460
asg462
(lp531
I-3462545289484243852
aI2943748495363814872
aI7176919451872790204
asg464
(lp532
g466
ag467
ag491
as(dtRp533
(dp534
bag7
(I5
(lp535
(I0
I2
tp536
a(I2
I1
tp537
a(I0
I3
tp538
a(I3
I1
tp539
a(I4
I2
tp540
a(I3
I4
tp541
aI01
(d(dp542
g457
(lp543
g459
ag459
ag460
ag460
ag461
asg462
(lp544
I8122171169431586937
aI2943748495363814872
aI5178520372251581727
aI2431978072754398159
aI1885912438741870439
asg464
(lp545
g466
ag467
a(dp546
g469
g470
sg471
S'0,+'
p547
sa(dp548
g469
g470
sg471
S'0,0'
p549
saS'm'
as(dtRp550
(dp551
bag7
(I3
(lp552
(I0
I2
tp553
a(I2
I1
tp554
aI01
(d(dp555
g457
(lp556
g459
ag459
ag460
asg462
(lp557
I280379060977744357
aI2943748495363814872
aI5178520372251581727
asg464
(lp558
g466
ag467
ag546
as(dtRp559
(dp560
bag7
(I5
(lp561
(I0
I2
tp562
a(I2
I1
tp563
a(I0
I3
tp564
a(I3
I1
tp565
a(I2
I4
tp566
a(I4
I3
tp567
aI01
(d(dp568
g457
(lp569
g459
ag459
ag460
ag460
ag461
asg462
(lp570
I5398363085317356635
aI2943748495363814872
aI1172314437366189169
aI-4149100665205021431
aI6831453706308720211
asg464
(lp571
S'Dishwasher'
p572
ag467
a(dp573
g469
g489
sg471
S'0,0'
p574
sa(dp575
g469
g474
sg471
g574
saS'm'
as(dtRp576
(dp577
bag7
(I3
(lp578
(I0
I2
tp579
a(I2
I1
tp580
aI01
(d(dp581
g457
(lp582
g459
ag459
ag460
asg462
(lp583
I-6803055860605111173
aI2943748495363814872
aI-4149100665205021431
asg464
(lp584
g572
ag467
a(dp585
g469
g474
sg471
g574
sas(dtRp586
(dp587
bag7
(I3
(lp588
(I0
I2
tp589
a(I2
I1
tp590
aI01
(d(dp591
g457
(lp592
g459
ag459
ag460
asg462
(lp593
I3161916919688734808
aI2943748495363814872
aI7421562519733548918
asg464
(lp594
g572
ag467
ag573
as(dtRp595
(dp596
bag7
(I5
(lp597
(I0
I2
tp598
a(I2
I1
tp599
a(I0
I3
tp600
a(I3
I1
tp601
a(I2
I4
tp602
a(I4
I3
tp603
aI01
(d(dp604
S'node_type'
p605
(lp606
S'object'
p607
ag607
aS'spatial_relation'
p608
ag608
aS'temporal_relation'
p609
asS'hash_name'
p610
(lp611
I-60692211545496022
aI2943748495363814872
aI-7624645429895956036
aI4451021053563392526
aI5917063565800124456
asS'name'
p612
(lp613
S'Microwave'
p614
aS'hand'
p615
a(dp616
S'argd'
p617
S'Medium'
p618
sS'qtcbs'
p619
S'0,+'
p620
sa(dp621
g617
g618
sg619
S'0,-'
p622
saS'm'
as(dtRp623
(dp624
bag7
(I5
(lp625
(I0
I2
tp626
a(I2
I1
tp627
a(I0
I3
tp628
a(I3
I1
tp629
a(I2
I4
tp630
a(I4
I3
tp631
aI01
(d(dp632
g605
(lp633
g607
ag607
ag608
ag608
ag609
asg610
(lp634
I-60692211545496022
aI2943748495363814872
aI2124298805984014148
aI7176919451872790204
aI5049612174079324638
asg612
(lp635
g614
ag615
a(dp636
g617
g618
sg619
S'0,-'
p637
sag616
aS'm'
as(dtRp638
(dp639
bag7
(I3
(lp640
(I0
I2
tp641
a(I2
I1
tp642
aI01
(d(dp643
g605
(lp644
g607
ag607
ag608
asg610
(lp645
I6693446009217404435
aI2943748495363814872
aI7834580806469443149
asg612
(lp646
S'Microwave'
p647
ag615
a(dp648
g617
S'Touch'
p649
sg619
S'0,-'
p650
sas(dtRp651
(dp652
bag7
(I5
(lp653
(I0
I2
tp654
a(I2
I1
tp655
a(I0
I3
tp656
a(I3
I1
tp657
a(I2
I4
tp658
a(I4
I3
tp659
aI01
(d(dp660
S'node_type'
p661
(lp662
S'object'
p663
ag663
aS'spatial_relation'
p664
ag664
aS'temporal_relation'
p665
asS'hash_name'
p666
(lp667
I-184960970016197911
aI2943748495363814872
aI1172314437366189169
aI-4149100665205021431
aI6831453706308720211
asS'name'
p668
(lp669
S'Coffee_Machine'
p670
aS'hand'
p671
a(dp672
S'argd'
p673
S'Near'
p674
sS'qtcbs'
p675
S'0,0'
p676
sa(dp677
g673
S'Medium'
p678
sg675
g676
saS'm'
as(dtRp679
(dp680
bag7
(I5
(lp681
(I0
I2
tp682
a(I2
I1
tp683
a(I0
I3
tp684
a(I3
I1
tp685
a(I2
I4
tp686
a(I4
I3
tp687
aI01
(d(dp688
g661
(lp689
g663
ag663
ag664
ag664
ag665
asg666
(lp690
I-7731339591855809928
aI2943748495363814872
aI-3849064218774837254
aI7834580806469443149
aI-8844258723457717263
asg668
(lp691
S'Microwave'
p692
ag671
a(dp693
g673
g674
sg675
S'0,-'
p694
sa(dp695
g673
S'Touch'
p696
sg675
g694
saS'm'
as(dtRp697
(dp698
bag7
(I5
(lp699
(I0
I2
tp700
a(I2
I1
tp701
a(I0
I3
tp702
a(I3
I1
tp703
a(I2
I4
tp704
a(I4
I3
tp705
aI01
(d(dp706
S'node_type'
p707
(lp708
S'object'
p709
ag709
aS'spatial_relation'
p710
ag710
aS'temporal_relation'
p711
asS'hash_name'
p712
(lp713
I5671927936411809967
aI2943748495363814872
aI3878643299206362673
aI-2617503310424312746
aI-2219404083398059562
asS'name'
p714
(lp715
S'Coffee_Machine'
p716
aS'hand'
p717
a(dp718
S'argd'
p719
S'Touch'
p720
sS'qtcbs'
p721
S'0,-'
p722
sa(dp723
g719
g720
sg721
S'0,0'
p724
saS'm'
as(dtRp725
(dp726
bag7
(I5
(lp727
(I0
I2
tp728
a(I2
I1
tp729
a(I0
I3
tp730
a(I3
I1
tp731
a(I2
I4
tp732
a(I4
I3
tp733
aI01
(d(dp734
g707
(lp735
g709
ag709
ag710
ag710
ag711
asg712
(lp736
I7026402326449993732
aI2943748495363814872
aI-3849064218774837254
aI7834580806469443149
aI-8844258723457717263
asg714
(lp737
g716
ag717
a(dp738
g719
S'Near'
p739
sg721
g722
sag718
aS'm'
as(dtRp740
(dp741
bag7
(I3
(lp742
(I0
I2
tp743
a(I2
I1
tp744
aI01
(d(dp745
S'node_type'
p746
(lp747
S'object'
p748
ag748
aS'spatial_relation'
p749
asS'hash_name'
p750
(lp751
I-817157566720353009
aI2943748495363814872
aI4451021053563392526
asS'name'
p752
(lp753
S'Sink'
p754
aS'hand'
p755
a(dp756
S'argd'
p757
S'Medium'
p758
sS'qtcbs'
p759
S'0,-'
p760
sas(dtRp761
(dp762
bag7
(I3
(lp763
(I0
I2
tp764
a(I2
I1
tp765
aI01
(d(dp766
g746
(lp767
g748
ag748
ag749
asg750
(lp768
I5720283938396960887
aI2943748495363814872
aI-2617503310424312746
asg752
(lp769
g754
ag755
a(dp770
g757
S'Touch'
p771
sg759
S'0,0'
p772
sas(dtRp773
(dp774
bag7
(I3
(lp775
(I0
I2
tp776
a(I2
I1
tp777
aI01
(d(dp778
g746
(lp779
g748
ag748
ag749
asg750
(lp780
I-236204468100213188
aI2943748495363814872
aI4451021053563392526
asg752
(lp781
S'Dishwasher'
p782
ag755
a(dp783
g757
g758
sg759
S'0,-'
p784
sas(dtRp785
(dp786
bag7
(I5
(lp787
(I0
I2
tp788
a(I2
I1
tp789
a(I0
I3
tp790
a(I3
I1
tp791
a(I2
I4
tp792
a(I4
I3
tp793
aI01
(d(dp794
g746
(lp795
g748
ag748
ag749
ag749
aS'temporal_relation'
p796
asg750
(lp797
I5398363085317356635
aI2943748495363814872
aI-3891691985452814689
aI7421562519733548918
aI-8324344705062564924
asg752
(lp798
g782
ag755
a(dp799
g757
g758
sg759
S'0,0'
p800
sa(dp801
g757
S'Near'
p802
sg759
g800
saS'm'
as(dtRp803
(dp804
bag7
(I3
(lp805
(I0
I2
tp806
a(I2
I1
tp807
aI01
(d(dp808
S'node_type'
p809
(lp810
S'object'
p811
ag811
aS'spatial_relation'
p812
asS'hash_name'
p813
(lp814
I6501738485425708901
aI2943748495363814872
aI-2617503310424312746
asS'name'
p815
(lp816
S'Fruit_bowl'
p817
aS'hand'
p818
a(dp819
S'argd'
p820
S'Touch'
p821
sS'qtcbs'
p822
S'0,0'
p823
sas(dtRp824
(dp825
bag7
(I5
(lp826
(I0
I2
tp827
a(I2
I1
tp828
a(I0
I3
tp829
a(I3
I1
tp830
a(I2
I4
tp831
a(I4
I3
tp832
aI01
(d(dp833
S'node_type'
p834
(lp835
S'object'
p836
ag836
aS'spatial_relation'
p837
ag837
aS'temporal_relation'
p838
asS'hash_name'
p839
(lp840
I-2632941245955734266
aI2943748495363814872
aI-8029387278036107798
aI-2617503310424312746
aI-2219404083398059562
asS'name'
p841
(lp842
S'Coffee_Machine'
p843
aS'hand'
p844
a(dp845
S'argd'
p846
S'Near'
p847
sS'qtcbs'
p848
S'0,0'
p849
sa(dp850
g846
S'Touch'
p851
sg848
g849
saS'm'
as(dtRp852
(dp853
bag7
(I5
(lp854
(I0
I2
tp855
a(I2
I1
tp856
a(I0
I3
tp857
a(I3
I1
tp858
a(I2
I4
tp859
a(I4
I3
tp860
aI01
(d(dp861
S'node_type'
p862
(lp863
S'object'
p864
ag864
aS'spatial_relation'
p865
ag865
aS'temporal_relation'
p866
asS'hash_name'
p867
(lp868
I-4852294857286468752
aI2943748495363814872
aI785897909423859772
aI786835931989030611
aI-5667327595027073439
asS'name'
p869
(lp870
S'Microwave'
p871
aS'hand'
p872
a(dp873
S'argd'
p874
S'Touch'
p875
sS'qtcbs'
p876
S'0,+'
p877
sa(dp878
g874
S'Near'
p879
sg876
g877
saS'm'
as(dtRp880
(dp881
bag7
(I5
(lp882
(I0
I2
tp883
a(I2
I1
tp884
a(I0
I3
tp885
a(I3
I1
tp886
a(I2
I4
tp887
a(I4
I3
tp888
aI01
(d(dp889
g862
(lp890
g864
ag864
ag865
ag865
ag866
asg867
(lp891
I5876522943585845101
aI2943748495363814872
aI-1685394872718520829
aI4451021053563392526
aI5917063565800124456
asg869
(lp892
S'Microwave'
p893
ag872
a(dp894
g874
S'Medium'
p895
sg876
S'0,0'
p896
sa(dp897
g874
g895
sg876
S'0,-'
p898
saS'm'
as(dtRp899
(dp900
bag7
(I3
(lp901
(I0
I2
tp902
a(I2
I1
tp903
aI01
(d(dp904
S'node_type'
p905
(lp906
S'object'
p907
ag907
aS'spatial_relation'
p908
asS'hash_name'
p909
(lp910
I4095453012453532519
aI2943748495363814872
aI7421562519733548918
asS'name'
p911
(lp912
S'Sink'
p913
aS'hand'
p914
a(dp915
S'argd'
p916
S'Near'
p917
sS'qtcbs'
p918
S'0,0'
p919
sas(dtRp920
(dp921
bag7
(I5
(lp922
(I0
I2
tp923
a(I2
I1
tp924
a(I0
I3
tp925
a(I3
I1
tp926
a(I2
I4
tp927
a(I4
I3
tp928
aI01
(d(dp929
g905
(lp930
g907
ag907
ag908
ag908
aS'temporal_relation'
p931
asg909
(lp932
I-1005315375222187645
aI2943748495363814872
aI-8029387278036107798
aI-2617503310424312746
aI-2219404083398059562
asg911
(lp933
g913
ag914
ag915
a(dp934
g916
S'Touch'
p935
sg918
g919
saS'm'
as(dtRp936
(dp937
bag7
(I5
(lp938
(I0
I2
tp939
a(I2
I1
tp940
a(I0
I3
tp941
a(I3
I1
tp942
a(I2
I4
tp943
a(I4
I3
tp944
aI01
(d(dp945
S'node_type'
p946
(lp947
S'object'
p948
ag948
aS'spatial_relation'
p949
ag949
aS'temporal_relation'
p950
asS'hash_name'
p951
(lp952
I-8393327910757468823
aI2943748495363814872
aI-3849064218774837254
aI7834580806469443149
aI-8844258723457717263
asS'name'
p953
(lp954
S'Printer'
p955
aS'hand'
p956
a(dp957
S'argd'
p958
S'Near'
p959
sS'qtcbs'
p960
S'0,-'
p961
sa(dp962
g958
S'Touch'
p963
sg960
g961
saS'm'
as(dtRp964
(dp965
bag7
(I3
(lp966
(I0
I2
tp967
a(I2
I1
tp968
aI01
(d(dp969
g946
(lp970
g948
ag948
ag949
asg951
(lp971
I-2994940003080233512
aI2943748495363814872
aI7834580806469443149
asg953
(lp972
g955
ag956
ag962
as(dtRp973
(dp974
batb.