cnumpy.core.multiarray
_reconstruct
p1
(cnumpy
ndarray
p2
(I0
tS'b'
tRp3
(I1
(I38
tcnumpy
dtype
p4
(S'O8'
I0
I1
tRp5
(I3
S'|'
NNNI-1
I-1
I63
tbI00
(lp6
cigraph
Graph
p7
(I3
(lp8
(I0
I2
tp9
a(I2
I1
tp10
aI01
(d(dp11
S'node_type'
p12
(lp13
S'object'
p14
ag14
aS'spatial_relation'
p15
asS'hash_name'
p16
(lp17
I-4973402468991048834
aI2943748495363814872
aI469227776566131623
asS'name'
p18
(lp19
S'Fridge'
p20
aS'hand'
p21
a(dp22
S'argd'
p23
S'Near'
p24
sas(dtRp25
(dp26
bag7
(I3
(lp27
(I0
I2
tp28
a(I2
I1
tp29
aI01
(d(dp30
S'node_type'
p31
(lp32
S'object'
p33
ag33
aS'spatial_relation'
p34
asS'hash_name'
p35
(lp36
I9066698951220437642
aI2943748495363814872
aI469227776566131623
asS'name'
p37
(lp38
S'Sink'
p39
aS'hand'
p40
a(dp41
S'argd'
p42
S'Near'
p43
sas(dtRp44
(dp45
bag7
(I5
(lp46
(I0
I2
tp47
a(I2
I1
tp48
a(I0
I3
tp49
a(I3
I1
tp50
a(I2
I4
tp51
a(I4
I3
tp52
aI01
(d(dp53
g31
(lp54
g33
ag33
ag34
ag34
aS'temporal_relation'
p55
asg35
(lp56
I-8590073844872663106
aI2943748495363814872
aI-6025142267869382651
aI469227776566131623
aI8430775518624910700
asg37
(lp57
S'Fridge'
p58
ag40
a(dp59
g42
S'Touch'
p60
sa(dp61
g42
g43
saS'<'
as(dtRp62
(dp63
bag7
(I3
(lp64
(I0
I2
tp65
a(I2
I1
tp66
aI01
(d(dp67
g31
(lp68
g33
ag33
ag34
asg35
(lp69
I-449050829453516226
aI2943748495363814872
aI-1304303210227997045
asg37
(lp70
g58
ag40
ag59
as(dtRp71
(dp72
bag7
(I3
(lp73
(I0
I2
tp74
a(I2
I1
tp75
aI01
(d(dp76
g31
(lp77
g33
ag33
ag34
asg35
(lp78
I2147375778632746892
aI2943748495363814872
aI469227776566131623
asg37
(lp79
S'Kettle'
p80
ag40
a(dp81
g42
g43
sas(dtRp82
(dp83
bag7
(I5
(lp84
(I0
I2
tp85
a(I2
I1
tp86
a(I0
I3
tp87
a(I3
I1
tp88
a(I2
I4
tp89
a(I4
I3
tp90
aI01
(d(dp91
S'node_type'
p92
(lp93
S'object'
p94
ag94
aS'spatial_relation'
p95
ag95
aS'temporal_relation'
p96
asS'hash_name'
p97
(lp98
I-8590073844872663106
aI2943748495363814872
aI-7212854102471866235
aI-1304303210227997045
aI3857358919175591728
asS'name'
p99
(lp100
S'Fridge'
p101
aS'hand'
p102
a(dp103
S'argd'
p104
S'Near'
p105
sa(dp106
g104
S'Touch'
p107
saS'<'
as(dtRp108
(dp109
bag7
(I5
(lp110
(I0
I2
tp111
a(I2
I1
tp112
a(I0
I3
tp113
a(I3
I1
tp114
a(I2
I4
tp115
a(I4
I3
tp116
aI01
(d(dp117
g92
(lp118
g94
ag94
ag95
ag95
ag96
asg97
(lp119
I5929667911116586056
aI2943748495363814872
aI-3891028750882366503
aI469227776566131623
aI8430775518624910700
asg99
(lp120
g101
ag102
a(dp121
g104
g105
sa(dp122
g104
g105
saS'<'
as(dtRp123
(dp124
bag7
(I5
(lp125
(I0
I2
tp126
a(I2
I1
tp127
a(I0
I3
tp128
a(I3
I1
tp129
a(I4
I2
tp130
a(I3
I4
tp131
aI01
(d(dp132
S'node_type'
p133
(lp134
S'object'
p135
ag135
aS'spatial_relation'
p136
ag136
aS'temporal_relation'
p137
asS'hash_name'
p138
(lp139
I-3793724181828009902
aI2943748495363814872
aI469227776566131623
aI-3891028750882366503
aI8430775518624910700
asS'name'
p140
(lp141
S'Kettle'
p142
aS'hand'
p143
a(dp144
S'argd'
p145
S'Near'
p146
sa(dp147
g145
g146
saS'<'
as(dtRp148
(dp149
bag7
(I3
(lp150
(I0
I2
tp151
a(I2
I1
tp152
aI01
(d(dp153
S'node_type'
p154
(lp155
S'object'
p156
ag156
aS'spatial_relation'
p157
asS'hash_name'
p158
(lp159
I-5833168906873060240
aI2943748495363814872
aI469227776566131623
asS'name'
p160
(lp161
S'Tea_Pot'
p162
aS'hand'
p163
a(dp164
S'argd'
p165
S'Near'
p166
sas(dtRp167
(dp168
bag7
(I5
(lp169
(I0
I2
tp170
a(I2
I1
tp171
a(I0
I3
tp172
a(I3
I1
tp173
a(I2
I4
tp174
a(I4
I3
tp175
aI01
(d(dp176
S'node_type'
p177
(lp178
S'object'
p179
ag179
aS'spatial_relation'
p180
ag180
aS'temporal_relation'
p181
asS'hash_name'
p182
(lp183
I-3064038546300847750
aI2943748495363814872
aI-6025142267869382651
aI469227776566131623
aI8430775518624910700
asS'name'
p184
(lp185
S'Sink'
p186
aS'hand'
p187
a(dp188
S'argd'
p189
S'Touch'
p190
sa(dp191
g189
S'Near'
p192
saS'<'
as(dtRp193
(dp194
bag7
(I3
(lp195
(I0
I2
tp196
a(I2
I1
tp197
aI01
(d(dp198
g177
(lp199
g179
ag179
ag180
asg182
(lp200
I-1270143149149124330
aI2943748495363814872
aI-1304303210227997045
asg184
(lp201
g186
ag187
ag188
as(dtRp202
(dp203
bag7
(I5
(lp204
(I0
I2
tp205
a(I2
I1
tp206
a(I0
I3
tp207
a(I3
I1
tp208
a(I2
I4
tp209
a(I4
I3
tp210
aI01
(d(dp211
S'node_type'
p212
(lp213
S'object'
p214
ag214
aS'spatial_relation'
p215
ag215
aS'temporal_relation'
p216
asS'hash_name'
p217
(lp218
I-6774508940495445980
aI2943748495363814872
aI-3891028750882366503
aI469227776566131623
aI8430775518624910700
asS'name'
p219
(lp220
S'Sink'
p221
aS'hand'
p222
a(dp223
S'argd'
p224
S'Near'
p225
sa(dp226
g224
g225
saS'<'
as(dtRp227
(dp228
bag7
(I5
(lp229
(I0
I2
tp230
a(I2
I1
tp231
a(I0
I3
tp232
a(I3
I1
tp233
a(I2
I4
tp234
a(I4
I3
tp235
aI01
(d(dp236
S'node_type'
p237
(lp238
S'object'
p239
ag239
aS'spatial_relation'
p240
ag240
aS'temporal_relation'
p241
asS'hash_name'
p242
(lp243
I-3064038546300847750
aI2943748495363814872
aI-7212854102471866235
aI-1304303210227997045
aI3857358919175591728
asS'name'
p244
(lp245
S'Sink'
p246
aS'hand'
p247
a(dp248
S'argd'
p249
S'Near'
p250
sa(dp251
g249
S'Touch'
p252
saS'<'
as(dtRp253
(dp254
bag7
(I5
(lp255
(I0
I2
tp256
a(I2
I1
tp257
a(I0
I3
tp258
a(I3
I1
tp259
a(I2
I4
tp260
a(I4
I3
tp261
aI01
(d(dp262
S'node_type'
p263
(lp264
S'object'
p265
ag265
aS'spatial_relation'
p266
ag266
aS'temporal_relation'
p267
asS'hash_name'
p268
(lp269
I-4066122263063979157
aI2943748495363814872
aI-3891028750882366503
aI469227776566131623
aI8430775518624910700
asS'name'
p270
(lp271
S'Microwave'
p272
aS'hand'
p273
a(dp274
S'argd'
p275
S'Near'
p276
sa(dp277
g275
g276
saS'<'
as(dtRp278
(dp279
bag7
(I3
(lp280
(I0
I2
tp281
a(I2
I1
tp282
aI01
(d(dp283
g263
(lp284
g265
ag265
ag266
asg268
(lp285
I1608880378610946895
aI2943748495363814872
aI469227776566131623
asg270
(lp286
g272
ag273
ag274
as(dtRp287
(dp288
bag7
(I5
(lp289
(I0
I2
tp290
a(I2
I1
tp291
a(I0
I3
tp292
a(I3
I1
tp293
a(I2
I4
tp294
a(I4
I3
tp295
aI01
(d(dp296
g263
(lp297
g265
ag265
ag266
ag266
ag267
asg268
(lp298
I7070767108825309548
aI2943748495363814872
aI-7212854102471866235
aI-1304303210227997045
aI3857358919175591728
asg270
(lp299
S'Tea_Pot'
p300
ag273
a(dp301
g275
g276
sa(dp302
g275
S'Touch'
p303
saS'<'
as(dtRp304
(dp305
bag7
(I5
(lp306
(I0
I2
tp307
a(I2
I1
tp308
a(I0
I3
tp309
a(I3
I1
tp310
a(I2
I4
tp311
a(I4
I3
tp312
aI01
(d(dp313
g263
(lp314
g265
ag265
ag266
ag266
ag267
asg268
(lp315
I7070767108825309548
aI2943748495363814872
aI-6025142267869382651
aI469227776566131623
aI8430775518624910700
asg270
(lp316
g300
ag273
ag302
a(dp317
g275
g276
saS'<'
as(dtRp318
(dp319
bag7
(I5
(lp320
(I0
I2
tp321
a(I2
I1
tp322
a(I0
I3
tp323
a(I3
I1
tp324
a(I4
I2
tp325
a(I3
I4
tp326
aI01
(d(dp327
g263
(lp328
g265
ag265
ag266
ag266
ag267
asg268
(lp329
I-1129877637421770606
aI2943748495363814872
aI469227776566131623
aI-3891028750882366503
aI8430775518624910700
asg270
(lp330
g300
ag273
a(dp331
g275
g276
sag317
aS'<'
as(dtRp332
(dp333
bag7
(I3
(lp334
(I0
I2
tp335
a(I2
I1
tp336
aI01
(d(dp337
g263
(lp338
g265
ag265
ag266
asg268
(lp339
I-4938518698877689408
aI2943748495363814872
aI-1304303210227997045
asg270
(lp340
g300
ag273
ag302
as(dtRp341
(dp342
bag7
(I5
(lp343
(I0
I2
tp344
a(I2
I1
tp345
a(I0
I3
tp346
a(I3
I1
tp347
a(I2
I4
tp348
a(I4
I3
tp349
aI01
(d(dp350
g263
(lp351
g265
ag265
ag266
ag266
ag267
asg268
(lp352
I-4812774464948889663
aI2943748495363814872
aI-7212854102471866235
aI-1304303210227997045
aI3857358919175591728
asg270
(lp353
S'Water_Cooler'
p354
ag273
a(dp355
g275
g276
sa(dp356
g275
g303
saS'<'
as(dtRp357
(dp358
bag7
(I3
(lp359
(I0
I2
tp360
a(I2
I1
tp361
aI01
(d(dp362
g263
(lp363
g265
ag265
ag266
asg268
(lp364
I6877730124529066271
aI2943748495363814872
aI-1304303210227997045
asg270
(lp365
g354
ag273
a(dp366
g275
g303
sas(dtRp367
(dp368
bag7
(I3
(lp369
(I0
I2
tp370
a(I2
I1
tp371
aI01
(d(dp372
g263
(lp373
g265
ag265
ag266
asg268
(lp374
I-3294211119684865011
aI2943748495363814872
aI469227776566131623
asg270
(lp375
g354
ag273
ag355
as(dtRp376
(dp377
bag7
(I5
(lp378
(I0
I2
tp379
a(I2
I1
tp380
a(I0
I3
tp381
a(I3
I1
tp382
a(I2
I4
tp383
a(I4
I3
tp384
aI01
(d(dp385
g263
(lp386
g265
ag265
ag266
ag266
ag267
asg268
(lp387
I8407252074868555969
aI2943748495363814872
aI-3891028750882366503
aI469227776566131623
aI8430775518624910700
asg270
(lp388
g354
ag273
a(dp389
g275
g276
sa(dp390
g275
g276
saS'<'
as(dtRp391
(dp392
bag7
(I5
(lp393
(I0
I2
tp394
a(I2
I1
tp395
a(I0
I3
tp396
a(I3
I1
tp397
a(I2
I4
tp398
a(I4
I3
tp399
aI01
(d(dp400
g263
(lp401
g265
ag265
ag266
ag266
ag267
asg268
(lp402
I-4812774464948889663
aI2943748495363814872
aI-6025142267869382651
aI469227776566131623
aI8430775518624910700
asg270
(lp403
g354
ag273
a(dp404
g275
g303
sag389
aS'<'
as(dtRp405
(dp406
bag7
(I3
(lp407
(I0
I2
tp408
a(I2
I1
tp409
aI01
(d(dp410
S'node_type'
p411
(lp412
S'object'
p413
ag413
aS'spatial_relation'
p414
asS'hash_name'
p415
(lp416
I-7537533457688028876
aI2943748495363814872
aI-1304303210227997045
asS'name'
p417
(lp418
S'Kettle'
p419
aS'hand'
p420
a(dp421
S'argd'
p422
S'Touch'
p423
sas(dtRp424
(dp425
bag7
(I5
(lp426
(I0
I2
tp427
a(I2
I1
tp428
a(I0
I3
tp429
a(I3
I1
tp430
a(I2
I4
tp431
a(I4
I3
tp432
aI01
(d(dp433
S'node_type'
p434
(lp435
S'object'
p436
ag436
aS'spatial_relation'
p437
ag437
aS'temporal_relation'
p438
asS'hash_name'
p439
(lp440
I-1929393466405188636
aI2943748495363814872
aI-7212854102471866235
aI-1304303210227997045
aI3857358919175591728
asS'name'
p441
(lp442
S'Kettle'
p443
aS'hand'
p444
a(dp445
S'argd'
p446
S'Near'
p447
sa(dp448
g446
S'Touch'
p449
saS'<'
as(dtRp450
(dp451
bag7
(I5
(lp452
(I0
I2
tp453
a(I2
I1
tp454
a(I0
I3
tp455
a(I3
I1
tp456
a(I2
I4
tp457
a(I4
I3
tp458
aI01
(d(dp459
g434
(lp460
g436
ag436
ag437
ag437
ag438
asg439
(lp461
I-1929393466405188636
aI2943748495363814872
aI-6025142267869382651
aI469227776566131623
aI8430775518624910700
asg441
(lp462
g443
ag444
ag448
a(dp463
g446
g447
saS'<'
as(dtRp464
(dp465
bag7
(I5
(lp466
(I0
I2
tp467
a(I2
I1
tp468
a(I0
I3
tp469
a(I3
I1
tp470
a(I2
I4
tp471
a(I4
I3
tp472
aI01
(d(dp473
S'node_type'
p474
(lp475
S'object'
p476
ag476
aS'spatial_relation'
p477
ag477
aS'temporal_relation'
p478
asS'hash_name'
p479
(lp480
I4941915918788948119
aI2943748495363814872
aI-7212854102471866235
aI-1304303210227997045
aI3857358919175591728
asS'name'
p481
(lp482
S'Microwave'
p483
aS'hand'
p484
a(dp485
S'argd'
p486
S'Near'
p487
sa(dp488
g486
S'Touch'
p489
saS'<'
as(dtRp490
(dp491
bag7
(I3
(lp492
(I0
I2
tp493
a(I2
I1
tp494
aI01
(d(dp495
g474
(lp496
g476
ag476
ag477
asg479
(lp497
I6354257020992098233
aI2943748495363814872
aI-1304303210227997045
asg481
(lp498
g483
ag484
ag488
as(dtRp499
(dp500
bag7
(I5
(lp501
(I0
I2
tp502
a(I2
I1
tp503
a(I0
I3
tp504
a(I3
I1
tp505
a(I2
I4
tp506
a(I4
I3
tp507
aI01
(d(dp508
S'node_type'
p509
(lp510
S'object'
p511
ag511
aS'spatial_relation'
p512
ag512
aS'temporal_relation'
p513
asS'hash_name'
p514
(lp515
I4941915918788948119
aI2943748495363814872
aI-6025142267869382651
aI469227776566131623
aI8430775518624910700
asS'name'
p516
(lp517
S'Microwave'
p518
aS'hand'
p519
a(dp520
S'argd'
p521
S'Touch'
p522
sa(dp523
g521
S'Near'
p524
saS'<'
as(dtRp525
(dp526
bag7
(I5
(lp527
(I0
I2
tp528
a(I2
I1
tp529
a(I0
I3
tp530
a(I3
I1
tp531
a(I2
I4
tp532
a(I4
I3
tp533
aI01
(d(dp534
S'node_type'
p535
(lp536
S'object'
p537
ag537
aS'spatial_relation'
p538
ag538
aS'temporal_relation'
p539
asS'hash_name'
p540
(lp541
I509009248576177456
aI2943748495363814872
aI-7212854102471866235
aI-1304303210227997045
aI3857358919175591728
asS'name'
p542
(lp543
S'Printer_console'
p544
aS'hand'
p545
a(dp546
S'argd'
p547
S'Near'
p548
sa(dp549
g547
S'Touch'
p550
saS'<'
as(dtRp551
(dp552
bag7
(I5
(lp553
(I0
I2
tp554
a(I2
I1
tp555
a(I0
I3
tp556
a(I3
I1
tp557
a(I2
I4
tp558
a(I4
I3
tp559
aI01
(d(dp560
g535
(lp561
g537
ag537
ag538
ag538
ag539
asg540
(lp562
I509009248576177456
aI2943748495363814872
aI-6025142267869382651
aI469227776566131623
aI8430775518624910700
asg542
(lp563
g544
ag545
ag549
a(dp564
g547
g548
saS'<'
as(dtRp565
(dp566
bag7
(I3
(lp567
(I0
I2
tp568
a(I2
I1
tp569
aI01
(d(dp570
g535
(lp571
g537
ag537
ag538
asg540
(lp572
I-731928380868869556
aI2943748495363814872
aI469227776566131623
asg542
(lp573
g544
ag545
ag546
as(dtRp574
(dp575
bag7
(I3
(lp576
(I0
I2
tp577
a(I2
I1
tp578
aI01
(d(dp579
g535
(lp580
g537
ag537
ag538
asg540
(lp581
I-1307378675156817652
aI2943748495363814872
aI-1304303210227997045
asg542
(lp582
g544
ag545
ag549
as(dtRp583
(dp584
bag7
(I5
(lp585
(I0
I2
tp586
a(I2
I1
tp587
a(I0
I3
tp588
a(I3
I1
tp589
a(I2
I4
tp590
a(I4
I3
tp591
aI01
(d(dp592
g535
(lp593
g537
ag537
ag538
ag538
ag539
asg540
(lp594
I-7515016368399889522
aI2943748495363814872
aI-3891028750882366503
aI469227776566131623
aI8430775518624910700
asg542
(lp595
g544
ag545
ag564
a(dp596
g547
g548
saS'<'
as(dtRp597
(dp598
bag7
(I3
(lp599
(I0
I2
tp600
a(I2
I1
tp601
aI01
(d(dp602
S'node_type'
p603
(lp604
S'object'
p605
ag605
aS'spatial_relation'
p606
asS'hash_name'
p607
(lp608
I-5790183130585887931
aI2943748495363814872
aI-1304303210227997045
asS'name'
p609
(lp610
S'Printer_paper_tray'
p611
aS'hand'
p612
a(dp613
S'argd'
p614
S'Touch'
p615
sas(dtRp616
(dp617
bag7
(I3
(lp618
(I0
I2
tp619
a(I2
I1
tp620
aI01
(d(dp621
S'node_type'
p622
(lp623
S'object'
p624
ag624
aS'spatial_relation'
p625
asS'hash_name'
p626
(lp627
I-2069535152842279501
aI2943748495363814872
aI469227776566131623
asS'name'
p628
(lp629
S'Printer_paper_tray'
p630
aS'hand'
p631
a(dp632
S'argd'
p633
S'Near'
p634
sas(dtRp635
(dp636
bag7
(I5
(lp637
(I0
I2
tp638
a(I2
I1
tp639
a(I0
I3
tp640
a(I3
I1
tp641
a(I2
I4
tp642
a(I4
I3
tp643
aI01
(d(dp644
S'node_type'
p645
(lp646
S'object'
p647
ag647
aS'spatial_relation'
p648
ag648
aS'temporal_relation'
p649
asS'hash_name'
p650
(lp651
I-7835642324223885089
aI2943748495363814872
aI-3891028750882366503
aI469227776566131623
aI8430775518624910700
asS'name'
p652
(lp653
S'Printer_paper_tray'
p654
aS'hand'
p655
a(dp656
S'argd'
p657
S'Near'
p658
sa(dp659
g657
g658
saS'<'
as(dtRp660
(dp661
batb.