cnumpy.core.multiarray
_reconstruct
p1
(cnumpy
ndarray
p2
(I0
tS'b'
tRp3
(I1
(I45
tcnumpy
dtype
p4
(S'O8'
I0
I1
tRp5
(I3
S'|'
NNNI-1
I-1
I63
tbI00
(lp6
cigraph
Graph
p7
(I5
(lp8
(I0
I2
tp9
a(I2
I1
tp10
a(I0
I3
tp11
a(I3
I1
tp12
a(I2
I4
tp13
a(I4
I3
tp14
aI01
(d(dp15
S'node_type'
p16
(lp17
S'object'
p18
ag18
aS'spatial_relation'
p19
ag19
aS'temporal_relation'
p20
asS'hash_name'
p21
(lp22
I-1141277297434528560
aI2943748495363814872
aI7124345806025013993
aI-4149100665205021431
aI6831453706308720211
asS'name'
p23
(lp24
S'Fruit_bowl'
p25
aS'hand'
p26
a(dp27
S'argd'
p28
S'Medium'
p29
sS'qtcbs'
p30
S'0,-'
p31
sa(dp32
g28
g29
sg30
S'0,0'
p33
saS'm'
as(dtRp34
(dp35
bag7
(I3
(lp36
(I0
I2
tp37
a(I2
I1
tp38
aI01
(d(dp39
g16
(lp40
g18
ag18
ag19
asg21
(lp41
I-8463932255958198275
aI2943748495363814872
aI4451021053563392526
asg23
(lp42
g25
ag26
ag27
as(dtRp43
(dp44
bag7
(I3
(lp45
(I0
I2
tp46
a(I2
I1
tp47
aI01
(d(dp48
g16
(lp49
g18
ag18
ag19
asg21
(lp50
I6150333844836147694
aI2943748495363814872
aI-4149100665205021431
asg23
(lp51
g25
ag26
ag32
as(dtRp52
(dp53
bag7
(I3
(lp54
(I0
I2
tp55
a(I2
I1
tp56
aI01
(d(dp57
S'node_type'
p58
(lp59
S'object'
p60
ag60
aS'spatial_relation'
p61
asS'hash_name'
p62
(lp63
I4232041277156461157
aI2943748495363814872
aI5178520372251581727
asS'name'
p64
(lp65
S'Coffee_Machine'
p66
aS'hand'
p67
a(dp68
S'argd'
p69
S'Touch'
p70
sS'qtcbs'
p71
S'0,+'
p72
sas(dtRp73
(dp74
bag7
(I3
(lp75
(I0
I2
tp76
a(I2
I1
tp77
aI01
(d(dp78
g58
(lp79
g60
ag60
ag61
asg62
(lp80
I-1738315723147636300
aI2943748495363814872
aI7176919451872790204
asg64
(lp81
g66
ag67
a(dp82
g69
S'Medium'
p83
sg71
g72
sas(dtRp84
(dp85
bag7
(I3
(lp86
(I0
I2
tp87
a(I2
I1
tp88
aI01
(d(dp89
g58
(lp90
g60
ag60
ag61
asg62
(lp91
I6656065949774670334
aI2943748495363814872
aI4451021053563392526
asg64
(lp92
g66
ag67
a(dp93
g69
g83
sg71
S'0,-'
p94
sas(dtRp95
(dp96
bag7
(I3
(lp97
(I0
I2
tp98
a(I2
I1
tp99
aI01
(d(dp100
g58
(lp101
g60
ag60
ag61
asg62
(lp102
I6620331350963823873
aI2943748495363814872
aI6376960376177072045
asg64
(lp103
g66
ag67
a(dp104
g69
S'Near'
p105
sg71
g94
sas(dtRp106
(dp107
bag7
(I3
(lp108
(I0
I2
tp109
a(I2
I1
tp110
aI01
(d(dp111
g58
(lp112
g60
ag60
ag61
asg62
(lp113
I5449974345051489622
aI2943748495363814872
aI7421562519733548918
asg64
(lp114
g66
ag67
a(dp115
g69
g105
sg71
S'0,0'
p116
sas(dtRp117
(dp118
bag7
(I3
(lp119
(I0
I2
tp120
a(I2
I1
tp121
aI01
(d(dp122
g58
(lp123
g60
ag60
ag61
asg62
(lp124
I-4166652396142349393
aI2943748495363814872
aI7834580806469443149
asg64
(lp125
g66
ag67
a(dp126
g69
g70
sg71
S'0,-'
p127
sas(dtRp128
(dp129
bag7
(I5
(lp130
(I0
I2
tp131
a(I2
I1
tp132
a(I0
I3
tp133
a(I3
I1
tp134
a(I4
I2
tp135
a(I3
I4
tp136
aI01
(d(dp137
g58
(lp138
g60
ag60
ag61
ag61
aS'temporal_relation'
p139
asg62
(lp140
I-2632941245955734266
aI2943748495363814872
aI7421562519733548918
aI6721519785515249442
aI-8324344705062564924
asg64
(lp141
g66
ag67
ag115
a(dp142
g69
g70
sg71
g116
saS'm'
as(dtRp143
(dp144
bag7
(I3
(lp145
(I0
I2
tp146
a(I2
I1
tp147
aI01
(d(dp148
g58
(lp149
g60
ag60
ag61
asg62
(lp150
I-6774434637967949356
aI2943748495363814872
aI-2617503310424312746
asg64
(lp151
g66
ag67
ag142
as(dtRp152
(dp153
bag7
(I3
(lp154
(I0
I2
tp155
a(I2
I1
tp156
aI01
(d(dp157
S'node_type'
p158
(lp159
S'object'
p160
ag160
aS'spatial_relation'
p161
asS'hash_name'
p162
(lp163
I7863124402294895765
aI2943748495363814872
aI-4149100665205021431
asS'name'
p164
(lp165
S'Microwave'
p166
aS'hand'
p167
a(dp168
S'argd'
p169
S'Medium'
p170
sS'qtcbs'
p171
S'0,0'
p172
sas(dtRp173
(dp174
bag7
(I3
(lp175
(I0
I2
tp176
a(I2
I1
tp177
aI01
(d(dp178
g158
(lp179
g160
ag160
ag161
asg162
(lp180
I-4812265072702558164
aI2943748495363814872
aI-4149100665205021431
asg164
(lp181
S'Sink'
p182
ag167
a(dp183
g169
g170
sg171
S'0,0'
p184
sas(dtRp185
(dp186
bag7
(I3
(lp187
(I0
I2
tp188
a(I2
I1
tp189
aI01
(d(dp190
g158
(lp191
g160
ag160
ag161
asg162
(lp192
I-6841787277495247042
aI2943748495363814872
aI-2617503310424312746
asg164
(lp193
S'Dishwasher'
p194
ag167
a(dp195
g169
S'Touch'
p196
sg171
S'0,0'
p197
sas(dtRp198
(dp199
bag7
(I3
(lp200
(I0
I2
tp201
a(I2
I1
tp202
aI01
(d(dp203
S'node_type'
p204
(lp205
S'object'
p206
ag206
aS'spatial_relation'
p207
asS'hash_name'
p208
(lp209
I6114476999420750319
aI2943748495363814872
aI7421562519733548918
asS'name'
p210
(lp211
S'Printer'
p212
aS'hand'
p213
a(dp214
S'argd'
p215
S'Near'
p216
sS'qtcbs'
p217
S'0,0'
p218
sas(dtRp219
(dp220
bag7
(I5
(lp221
(I0
I2
tp222
a(I2
I1
tp223
a(I0
I3
tp224
a(I3
I1
tp225
a(I2
I4
tp226
a(I4
I3
tp227
aI01
(d(dp228
g204
(lp229
g206
ag206
ag207
ag207
aS'temporal_relation'
p230
asg208
(lp231
I5781379612082550239
aI2943748495363814872
aI-8029387278036107798
aI-2617503310424312746
aI-2219404083398059562
asg210
(lp232
g212
ag213
a(dp233
g215
g216
sg217
S'0,0'
p234
sa(dp235
g215
S'Touch'
p236
sg217
g234
saS'm'
as(dtRp237
(dp238
bag7
(I3
(lp239
(I0
I2
tp240
a(I2
I1
tp241
aI01
(d(dp242
g204
(lp243
g206
ag206
ag207
asg208
(lp244
I-6068317796762907512
aI2943748495363814872
aI-4149100665205021431
asg210
(lp245
g212
ag213
a(dp246
g215
S'Medium'
p247
sg217
g218
sas(dtRp248
(dp249
bag7
(I3
(lp250
(I0
I2
tp251
a(I2
I1
tp252
aI01
(d(dp253
g204
(lp254
g206
ag206
ag207
asg208
(lp255
I7451943882397867796
aI2943748495363814872
aI6376960376177072045
asg210
(lp256
g212
ag213
a(dp257
g215
g216
sg217
S'0,-'
p258
sas(dtRp259
(dp260
bag7
(I5
(lp261
(I0
I2
tp262
a(I2
I1
tp263
a(I0
I3
tp264
a(I3
I1
tp265
a(I2
I4
tp266
a(I4
I3
tp267
aI01
(d(dp268
g204
(lp269
g206
ag206
ag207
ag207
ag230
asg208
(lp270
I5781379612082550239
aI2943748495363814872
aI6721519785515249442
aI7421562519733548918
aI-8324344705062564924
asg210
(lp271
g212
ag213
a(dp272
g215
g236
sg217
g234
sag233
aS'm'
as(dtRp273
(dp274
bag7
(I3
(lp275
(I0
I2
tp276
a(I2
I1
tp277
aI01
(d(dp278
g204
(lp279
g206
ag206
ag207
asg208
(lp280
I8527351988858709919
aI2943748495363814872
aI-2617503310424312746
asg210
(lp281
g212
ag213
ag272
as(dtRp282
(dp283
bag7
(I5
(lp284
(I0
I2
tp285
a(I2
I1
tp286
a(I0
I3
tp287
a(I3
I1
tp288
a(I2
I4
tp289
a(I4
I3
tp290
aI01
(d(dp291
S'node_type'
p292
(lp293
S'object'
p294
ag294
aS'spatial_relation'
p295
ag295
aS'temporal_relation'
p296
asS'hash_name'
p297
(lp298
I-7464679880962223931
aI2943748495363814872
aI6717786494626103697
aI-4149100665205021431
aI6831453706308720211
asS'name'
p299
(lp300
S'Microwave'
p301
aS'hand'
p302
a(dp303
S'argd'
p304
S'Touch'
p305
sS'qtcbs'
p306
S'0,0'
p307
sa(dp308
g304
S'Medium'
p309
sg306
g307
saS'm'
as(dtRp310
(dp311
bag7
(I3
(lp312
(I0
I2
tp313
a(I2
I1
tp314
aI01
(d(dp315
g292
(lp316
g294
ag294
ag295
asg297
(lp317
I-5134474295189981758
aI2943748495363814872
aI7421562519733548918
asg299
(lp318
g301
ag302
a(dp319
g304
S'Near'
p320
sg306
S'0,0'
p321
sas(dtRp322
(dp323
bag7
(I3
(lp324
(I0
I2
tp325
a(I2
I1
tp326
aI01
(d(dp327
g292
(lp328
g294
ag294
ag295
asg297
(lp329
I5687640957437824752
aI2943748495363814872
aI-2617503310424312746
asg299
(lp330
g301
ag302
ag303
as(dtRp331
(dp332
bag7
(I3
(lp333
(I0
I2
tp334
a(I2
I1
tp335
aI01
(d(dp336
g292
(lp337
g294
ag294
ag295
asg297
(lp338
I8378464952454310595
aI2943748495363814872
aI786835931989030611
asg299
(lp339
g301
ag302
a(dp340
g304
g320
sg306
S'0,+'
p341
sas(dtRp342
(dp343
bag7
(I3
(lp344
(I0
I2
tp345
a(I2
I1
tp346
aI01
(d(dp347
g292
(lp348
g294
ag294
ag295
asg297
(lp349
I-3462545289484243852
aI2943748495363814872
aI7176919451872790204
asg299
(lp350
g301
ag302
a(dp351
g304
g309
sg306
g341
sas(dtRp352
(dp353
bag7
(I5
(lp354
(I0
I2
tp355
a(I2
I1
tp356
a(I0
I3
tp357
a(I3
I1
tp358
a(I2
I4
tp359
a(I4
I3
tp360
aI01
(d(dp361
g292
(lp362
g294
ag294
ag295
ag295
ag296
asg297
(lp363
I5398363085317356635
aI2943748495363814872
aI1172314437366189169
aI-4149100665205021431
aI6831453706308720211
asg299
(lp364
S'Dishwasher'
p365
ag302
a(dp366
g304
g320
sg306
S'0,0'
p367
sa(dp368
g304
g309
sg306
g367
saS'm'
as(dtRp369
(dp370
bag7
(I3
(lp371
(I0
I2
tp372
a(I2
I1
tp373
aI01
(d(dp374
g292
(lp375
g294
ag294
ag295
asg297
(lp376
I-6803055860605111173
aI2943748495363814872
aI-4149100665205021431
asg299
(lp377
g365
ag302
a(dp378
g304
g309
sg306
g367
sas(dtRp379
(dp380
bag7
(I3
(lp381
(I0
I2
tp382
a(I2
I1
tp383
aI01
(d(dp384
g292
(lp385
g294
ag294
ag295
asg297
(lp386
I3161916919688734808
aI2943748495363814872
aI7421562519733548918
asg299
(lp387
g365
ag302
ag366
as(dtRp388
(dp389
bag7
(I3
(lp390
(I0
I2
tp391
a(I2
I1
tp392
aI01
(d(dp393
S'node_type'
p394
(lp395
S'object'
p396
ag396
aS'spatial_relation'
p397
asS'hash_name'
p398
(lp399
I-8127552370213363657
aI2943748495363814872
aI786835931989030611
asS'name'
p400
(lp401
S'Coffee_Machine'
p402
aS'hand'
p403
a(dp404
S'argd'
p405
S'Near'
p406
sS'qtcbs'
p407
S'0,+'
p408
sas(dtRp409
(dp410
bag7
(I3
(lp411
(I0
I2
tp412
a(I2
I1
tp413
aI01
(d(dp414
g394
(lp415
g396
ag396
ag397
asg398
(lp416
I-5011325198360150715
aI2943748495363814872
aI-4149100665205021431
asg400
(lp417
g402
ag403
a(dp418
g405
S'Medium'
p419
sg407
S'0,0'
p420
sas(dtRp421
(dp422
bag7
(I5
(lp423
(I0
I2
tp424
a(I2
I1
tp425
a(I0
I3
tp426
a(I3
I1
tp427
a(I2
I4
tp428
a(I4
I3
tp429
aI01
(d(dp430
g394
(lp431
g396
ag396
ag397
ag397
aS'temporal_relation'
p432
asg398
(lp433
I5671927936411809967
aI2943748495363814872
aI3878643299206362673
aI-2617503310424312746
aI-2219404083398059562
asg400
(lp434
g402
ag403
a(dp435
g405
S'Touch'
p436
sg407
S'0,-'
p437
sa(dp438
g405
g436
sg407
S'0,0'
p439
saS'm'
as(dtRp440
(dp441
bag7
(I5
(lp442
(I0
I2
tp443
a(I2
I1
tp444
a(I0
I3
tp445
a(I3
I1
tp446
a(I2
I4
tp447
a(I4
I3
tp448
aI01
(d(dp449
g394
(lp450
g396
ag396
ag397
ag397
ag432
asg398
(lp451
I-184960970016197911
aI2943748495363814872
aI1172314437366189169
aI-4149100665205021431
aI6831453706308720211
asg400
(lp452
g402
ag403
a(dp453
g405
g406
sg407
g439
sa(dp454
g405
g419
sg407
g439
saS'm'
as(dtRp455
(dp456
bag7
(I5
(lp457
(I0
I2
tp458
a(I2
I1
tp459
a(I0
I3
tp460
a(I3
I1
tp461
a(I2
I4
tp462
a(I4
I3
tp463
aI01
(d(dp464
g394
(lp465
g396
ag396
ag397
ag397
ag432
asg398
(lp466
I7026402326449993732
aI2943748495363814872
aI-3849064218774837254
aI7834580806469443149
aI-8844258723457717263
asg400
(lp467
g402
ag403
a(dp468
g405
g406
sg407
g437
sag435
aS'm'
as(dtRp469
(dp470
bag7
(I3
(lp471
(I0
I2
tp472
a(I2
I1
tp473
aI01
(d(dp474
S'node_type'
p475
(lp476
S'object'
p477
ag477
aS'spatial_relation'
p478
asS'hash_name'
p479
(lp480
I-817157566720353009
aI2943748495363814872
aI4451021053563392526
asS'name'
p481
(lp482
S'Sink'
p483
aS'hand'
p484
a(dp485
S'argd'
p486
S'Medium'
p487
sS'qtcbs'
p488
S'0,-'
p489
sas(dtRp490
(dp491
bag7
(I3
(lp492
(I0
I2
tp493
a(I2
I1
tp494
aI01
(d(dp495
g475
(lp496
g477
ag477
ag478
asg479
(lp497
I5720283938396960887
aI2943748495363814872
aI-2617503310424312746
asg481
(lp498
g483
ag484
a(dp499
g486
S'Touch'
p500
sg488
S'0,0'
p501
sas(dtRp502
(dp503
bag7
(I3
(lp504
(I0
I2
tp505
a(I2
I1
tp506
aI01
(d(dp507
g475
(lp508
g477
ag477
ag478
asg479
(lp509
I-236204468100213188
aI2943748495363814872
aI4451021053563392526
asg481
(lp510
S'Dishwasher'
p511
ag484
a(dp512
g486
g487
sg488
S'0,-'
p513
sas(dtRp514
(dp515
bag7
(I5
(lp516
(I0
I2
tp517
a(I2
I1
tp518
a(I0
I3
tp519
a(I3
I1
tp520
a(I2
I4
tp521
a(I4
I3
tp522
aI01
(d(dp523
g475
(lp524
g477
ag477
ag478
ag478
aS'temporal_relation'
p525
asg479
(lp526
I5398363085317356635
aI2943748495363814872
aI-3891691985452814689
aI7421562519733548918
aI-8324344705062564924
asg481
(lp527
g511
ag484
a(dp528
g486
g487
sg488
S'0,0'
p529
sa(dp530
g486
S'Near'
p531
sg488
g529
saS'm'
as(dtRp532
(dp533
bag7
(I3
(lp534
(I0
I2
tp535
a(I2
I1
tp536
aI01
(d(dp537
S'node_type'
p538
(lp539
S'object'
p540
ag540
aS'spatial_relation'
p541
asS'hash_name'
p542
(lp543
I6501738485425708901
aI2943748495363814872
aI-2617503310424312746
asS'name'
p544
(lp545
S'Fruit_bowl'
p546
aS'hand'
p547
a(dp548
S'argd'
p549
S'Touch'
p550
sS'qtcbs'
p551
S'0,0'
p552
sas(dtRp553
(dp554
bag7
(I5
(lp555
(I0
I2
tp556
a(I2
I1
tp557
a(I0
I3
tp558
a(I3
I1
tp559
a(I2
I4
tp560
a(I4
I3
tp561
aI01
(d(dp562
S'node_type'
p563
(lp564
S'object'
p565
ag565
aS'spatial_relation'
p566
ag566
aS'temporal_relation'
p567
asS'hash_name'
p568
(lp569
I-2632941245955734266
aI2943748495363814872
aI-8029387278036107798
aI-2617503310424312746
aI-2219404083398059562
asS'name'
p570
(lp571
S'Coffee_Machine'
p572
aS'hand'
p573
a(dp574
S'argd'
p575
S'Near'
p576
sS'qtcbs'
p577
S'0,0'
p578
sa(dp579
g575
S'Touch'
p580
sg577
g578
saS'm'
as(dtRp581
(dp582
bag7
(I3
(lp583
(I0
I2
tp584
a(I2
I1
tp585
aI01
(d(dp586
S'node_type'
p587
(lp588
S'object'
p589
ag589
aS'spatial_relation'
p590
asS'hash_name'
p591
(lp592
I37941085128284994
aI2943748495363814872
aI4451021053563392526
asS'name'
p593
(lp594
S'Microwave'
p595
aS'hand'
p596
a(dp597
S'argd'
p598
S'Medium'
p599
sS'qtcbs'
p600
S'0,-'
p601
sas(dtRp602
(dp603
bag7
(I5
(lp604
(I0
I2
tp605
a(I2
I1
tp606
a(I0
I3
tp607
a(I3
I1
tp608
a(I2
I4
tp609
a(I4
I3
tp610
aI01
(d(dp611
g587
(lp612
g589
ag589
ag590
ag590
aS'temporal_relation'
p613
asg591
(lp614
I5876522943585845101
aI2943748495363814872
aI-1685394872718520829
aI4451021053563392526
aI5917063565800124456
asg593
(lp615
g595
ag596
a(dp616
g598
g599
sg600
S'0,0'
p617
sag597
aS'm'
as(dtRp618
(dp619
bag7
(I3
(lp620
(I0
I2
tp621
a(I2
I1
tp622
aI01
(d(dp623
g587
(lp624
g589
ag589
ag590
asg591
(lp625
I4095453012453532519
aI2943748495363814872
aI7421562519733548918
asg593
(lp626
S'Sink'
p627
ag596
a(dp628
g598
S'Near'
p629
sg600
S'0,0'
p630
sas(dtRp631
(dp632
bag7
(I5
(lp633
(I0
I2
tp634
a(I2
I1
tp635
a(I0
I3
tp636
a(I3
I1
tp637
a(I2
I4
tp638
a(I4
I3
tp639
aI01
(d(dp640
g587
(lp641
g589
ag589
ag590
ag590
ag613
asg591
(lp642
I-1005315375222187645
aI2943748495363814872
aI-8029387278036107798
aI-2617503310424312746
aI-2219404083398059562
asg593
(lp643
g627
ag596
ag628
a(dp644
g598
S'Touch'
p645
sg600
g630
saS'm'
as(dtRp646
(dp647
bag7
(I5
(lp648
(I0
I2
tp649
a(I2
I1
tp650
a(I0
I3
tp651
a(I3
I1
tp652
a(I2
I4
tp653
a(I4
I3
tp654
aI01
(d(dp655
S'node_type'
p656
(lp657
S'object'
p658
ag658
aS'spatial_relation'
p659
ag659
aS'temporal_relation'
p660
asS'hash_name'
p661
(lp662
I-8393327910757468823
aI2943748495363814872
aI-3849064218774837254
aI7834580806469443149
aI-8844258723457717263
asS'name'
p663
(lp664
S'Printer'
p665
aS'hand'
p666
a(dp667
S'argd'
p668
S'Near'
p669
sS'qtcbs'
p670
S'0,-'
p671
sa(dp672
g668
S'Touch'
p673
sg670
g671
saS'm'
as(dtRp674
(dp675
bag7
(I3
(lp676
(I0
I2
tp677
a(I2
I1
tp678
aI01
(d(dp679
g656
(lp680
g658
ag658
ag659
asg661
(lp681
I-2994940003080233512
aI2943748495363814872
aI7834580806469443149
asg663
(lp682
g665
ag666
ag672
as(dtRp683
(dp684
batb.